target datalayout = "e-m:e-p270:32:32-p271:32:32-p272:64:64-i64:64-i128:128-f80:128-n8:16:32:64-S128"
target triple = "x86_64-unknown-linux-gnu"

%"class.icu_75::Measure" = type { %"class.icu_75::UObject", %"class.icu_75::Formattable", ptr }
%"class.icu_75::UObject" = type { ptr }
%"class.icu_75::Formattable" = type { %"class.icu_75::UObject", %union.anon, ptr, ptr, i32, %"class.icu_75::UnicodeString" }
%union.anon = type { %struct.anon }
%struct.anon = type { ptr, i32 }
%"class.icu_75::UnicodeString" = type { %"class.icu_75::Replaceable", %"union.icu_75::UnicodeString::StackBufferOrFields" }
%"class.icu_75::Replaceable" = type { %"class.icu_75::UObject" }
%"union.icu_75::UnicodeString::StackBufferOrFields" = type { %struct.anon.1, [32 x i8] }
%struct.anon.1 = type { i16, i32, i32, ptr }

@_ZTVN6icu_757MeasureE = unnamed_addr constant { [6 x ptr] } { [6 x ptr] [ptr null, ptr @_ZTIN6icu_757MeasureE, ptr @_ZN6icu_757MeasureD1Ev, ptr @_ZN6icu_757MeasureD0Ev, ptr @_ZNK6icu_757Measure17getDynamicClassIDEv, ptr @_ZNK6icu_757Measure5cloneEv] }, align 8
@_ZTVN6icu_757UObjectE = external unnamed_addr constant { [5 x ptr] }, align 8

; Function Attrs: mustprogress nounwind uwtable
define internal noundef signext i8 @_ZL9U_SUCCESS10UErrorCode(i32 noundef %code) #0 {
entry:
  %code.addr = alloca i32, align 4
  store i32 %code, ptr %code.addr, align 4
  %0 = load i32, ptr %code.addr, align 4
  %cmp = icmp sle i32 %0, 0
  %conv = zext i1 %cmp to i8
  ret i8 %conv
}

; Function Attrs: mustprogress nounwind uwtable
define linkonce_odr void @_ZN6icu_757UObjectC2Ev(ptr noundef nonnull align 8 dereferenceable(8) %this) unnamed_addr #0 comdat align 2 {
entry:
  %this.addr = alloca ptr, align 8
  store ptr %this, ptr %this.addr, align 8
  %this1 = load ptr, ptr %this.addr, align 8
  store ptr getelementptr inbounds ({ [5 x ptr] }, ptr @_ZTVN6icu_757UObjectE, i32 0, i32 0, i32 2), ptr %this1, align 8
  ret void
}

; Function Attrs: mustprogress uwtable
define void @_ZN6icu_757MeasureC2ERKNS_11FormattableEPNS_11MeasureUnitER10UErrorCode(ptr noundef nonnull align 8 dereferenceable(128) %this, ptr noundef nonnull align 8 dereferenceable(112) %_number, ptr noundef %adoptedUnit, ptr noundef nonnull align 4 dereferenceable(4) %ec) unnamed_addr #1 align 2 personality ptr @__gxx_personality_v0 {
entry:
  %this.addr = alloca ptr, align 8
  %_number.addr = alloca ptr, align 8
  %adoptedUnit.addr = alloca ptr, align 8
  %ec.addr = alloca ptr, align 8
  %exn.slot = alloca ptr, align 8
  %ehselector.slot = alloca i32, align 4
  store ptr %this, ptr %this.addr, align 8
  store ptr %_number, ptr %_number.addr, align 8
  store ptr %adoptedUnit, ptr %adoptedUnit.addr, align 8
  store ptr %ec, ptr %ec.addr, align 8
  %this1 = load ptr, ptr %this.addr, align 8
  call void @_ZN6icu_757UObjectC2Ev(ptr noundef nonnull align 8 dereferenceable(8) %this1) #4
  store ptr getelementptr inbounds ({ [6 x ptr] }, ptr @_ZTVN6icu_757MeasureE, i32 0, i32 0, i32 2), ptr %this1, align 8
  %number = getelementptr inbounds %"class.icu_75::Measure", ptr %this1, i32 0, i32 1
  %0 = load ptr, ptr %_number.addr, align 8
  invoke void @_ZN6icu_7511FormattableC1ERKS0_(ptr noundef nonnull align 8 dereferenceable(112) %number, ptr noundef nonnull align 8 dereferenceable(112) %0)
          to label %invoke.cont unwind label %lpad

invoke.cont:                                      ; preds = %entry
  %unit = getelementptr inbounds %"class.icu_75::Measure", ptr %this1, i32 0, i32 2
  %1 = load ptr, ptr %adoptedUnit.addr, align 8
  store ptr %1, ptr %unit, align 8
  %2 = load ptr, ptr %ec.addr, align 8
  %3 = load i32, ptr %2, align 4
  %call = invoke noundef signext i8 @_ZL9U_SUCCESS10UErrorCode(i32 noundef %3)
          to label %invoke.cont3 unwind label %lpad2

invoke.cont3:                                     ; preds = %invoke.cont
  %tobool = icmp ne i8 %call, 0
  br i1 %tobool, label %land.lhs.true, label %if.end

land.lhs.true:                                    ; preds = %invoke.cont3
  %number4 = getelementptr inbounds %"class.icu_75::Measure", ptr %this1, i32 0, i32 1
  %call6 = invoke noundef signext i8 @_ZNK6icu_7511Formattable9isNumericEv(ptr noundef nonnull align 8 dereferenceable(112) %number4)
          to label %invoke.cont5 unwind label %lpad2

invoke.cont5:                                     ; preds = %land.lhs.true
  %tobool7 = icmp ne i8 %call6, 0
  br i1 %tobool7, label %lor.lhs.false, label %if.then

lor.lhs.false:                                    ; preds = %invoke.cont5
  %4 = load ptr, ptr %adoptedUnit.addr, align 8
  %cmp = icmp eq ptr %4, null
  br i1 %cmp, label %if.then, label %if.end

if.then:                                          ; preds = %lor.lhs.false, %invoke.cont5
  %5 = load ptr, ptr %ec.addr, align 8
  store i32 1, ptr %5, align 4
  br label %if.end

lpad:                                             ; preds = %entry
  %6 = landingpad { ptr, i32 }
          cleanup
  %7 = extractvalue { ptr, i32 } %6, 0
  store ptr %7, ptr %exn.slot, align 8
  %8 = extractvalue { ptr, i32 } %6, 1
  store i32 %8, ptr %ehselector.slot, align 4
  br label %ehcleanup

lpad2:                                            ; preds = %land.lhs.true, %invoke.cont
  %9 = landingpad { ptr, i32 }
          cleanup
  %10 = extractvalue { ptr, i32 } %9, 0
  store ptr %10, ptr %exn.slot, align 8
  %11 = extractvalue { ptr, i32 } %9, 1
  store i32 %11, ptr %ehselector.slot, align 4
  call void @_ZN6icu_7511FormattableD1Ev(ptr noundef nonnull align 8 dereferenceable(112) %number) #4
  br label %ehcleanup

if.end:                                           ; preds = %if.then, %lor.lhs.false, %invoke.cont3
  ret void

ehcleanup:                                        ; preds = %lpad2, %lpad
  call void @_ZN6icu_757UObjectD2Ev(ptr noundef nonnull align 8 dereferenceable(8) %this1) #4
  br label %eh.resume

eh.resume:                                        ; preds = %ehcleanup
  %exn = load ptr, ptr %exn.slot, align 8
  %sel = load i32, ptr %ehselector.slot, align 4
  %lpad.val = insertvalue { ptr, i32 } poison, ptr %exn, 0
  %lpad.val8 = insertvalue { ptr, i32 } %lpad.val, i32 %sel, 1
  resume { ptr, i32 } %lpad.val8
}