; Function Attrs: mustprogress uwtable
define void @_ZN6icu_757MeasureC2ERKNS_11FormattableEPNS_11MeasureUnitER10UErrorCode(ptr noundef nonnull align 8 dereferenceable(128) %this, ptr noundef nonnull align 8 dereferenceable(112) %_number, ptr noundef %adoptedUnit, ptr nocapture noundef nonnull align 4 dereferenceable(4) %ec) unnamed_addr #1 align 2 personality ptr @__gxx_personality_v0 {
entry:
  store ptr getelementptr inbounds ({ [6 x ptr] }, ptr @_ZTVN6icu_757MeasureE, i64 0, i32 0, i64 2), ptr %this, align 8
  %number = getelementptr inbounds i8, ptr %this, i64 8
  invoke void @_ZN6icu_7511FormattableC1ERKS0_(ptr noundef nonnull align 8 dereferenceable(112) %number, ptr noundef nonnull align 8 dereferenceable(112) %_number)
          to label %invoke.cont unwind label %lpad

invoke.cont:                                      ; preds = %entry
  %unit = getelementptr inbounds i8, ptr %this, i64 120
  store ptr %adoptedUnit, ptr %unit, align 8
  %0 = load i32, ptr %ec, align 4
  %cmp.i = icmp sgt i32 %0, 0
  br i1 %cmp.i, label %if.end, label %land.lhs.true

land.lhs.true:                                    ; preds = %invoke.cont
  %call6 = invoke noundef signext i8 @_ZNK6icu_7511Formattable9isNumericEv(ptr noundef nonnull align 8 dereferenceable(112) %number)
          to label %invoke.cont5 unwind label %lpad2

invoke.cont5:                                     ; preds = %land.lhs.true
  %tobool7 = icmp eq i8 %call6, 0
  %cmp = icmp eq ptr %adoptedUnit, null
  %or.cond = or i1 %cmp, %tobool7
  br i1 %or.cond, label %if.then, label %if.end

if.then:                                          ; preds = %invoke.cont5
  store i32 1, ptr %ec, align 4
  br label %if.end

lpad:                                             ; preds = %entry
  %1 = landingpad { ptr, i32 }
          cleanup
  br label %ehcleanup

lpad2:                                            ; preds = %land.lhs.true
  %2 = landingpad { ptr, i32 }
          cleanup
  tail call void @_ZN6icu_7511FormattableD1Ev(ptr noundef nonnull align 8 dereferenceable(112) %number) #6
  br label %ehcleanup

if.end:                                           ; preds = %invoke.cont5, %if.then, %invoke.cont
  ret void

ehcleanup:                                        ; preds = %lpad2, %lpad
  %.pn = phi { ptr, i32 } [ %2, %lpad2 ], [ %1, %lpad ]
  tail call void @_ZN6icu_757UObjectD2Ev(ptr noundef nonnull align 8 dereferenceable(8) %this) #6
  resume { ptr, i32 } %.pn
}